target datalayout = "e-m:e-p270:32:32-p271:32:32-p272:64:64-i64:64-i128:128-f80:128-n8:16:32:64-S128"
target triple = "x86_64-pc-linux-gnu"

; Function Attrs: nounwind uwtable
define hidden ptr @file_strtrim(ptr noundef %0) #0 {
  %2 = alloca ptr, align 8
  %3 = alloca ptr, align 8
  store ptr %0, ptr %2, align 8
  br label %4

4:                                                ; preds = %16, %1
  %5 = call ptr @__ctype_b_loc() #12
  %6 = load ptr, ptr %5, align 8
  %7 = load ptr, ptr %2, align 8
  %8 = load i8, ptr %7, align 1
  %9 = zext i8 %8 to i32
  %10 = sext i32 %9 to i64
  %11 = getelementptr inbounds i16, ptr %6, i64 %10
  %12 = load i16, ptr %11, align 2
  %13 = zext i16 %12 to i32
  %14 = and i32 %13, 8192
  %15 = icmp ne i32 %14, 0
  br i1 %15, label %16, label %19

16:                                               ; preds = %4
  %17 = load ptr, ptr %2, align 8
  %18 = getelementptr inbounds i8, ptr %17, i32 1
  store ptr %18, ptr %2, align 8
  br label %4

19:                                               ; preds = %4
  %20 = load ptr, ptr %2, align 8
  store ptr %20, ptr %3, align 8
  br label %21

21:                                               ; preds = %25, %19
  %22 = load ptr, ptr %3, align 8
  %23 = load i8, ptr %22, align 1
  %24 = icmp ne i8 %23, 0
  br i1 %24, label %25, label %28

25:                                               ; preds = %21
  %26 = load ptr, ptr %3, align 8
  %27 = getelementptr inbounds i8, ptr %26, i32 1
  store ptr %27, ptr %3, align 8
  br label %21

28:                                               ; preds = %21
  %29 = load ptr, ptr %3, align 8
  %30 = getelementptr inbounds i8, ptr %29, i32 -1
  store ptr %30, ptr %3, align 8
  br label %31

31:                                               ; preds = %43, %28
  %32 = call ptr @__ctype_b_loc() #12
  %33 = load ptr, ptr %32, align 8
  %34 = load ptr, ptr %3, align 8
  %35 = load i8, ptr %34, align 1
  %36 = zext i8 %35 to i32
  %37 = sext i32 %36 to i64
  %38 = getelementptr inbounds i16, ptr %33, i64 %37
  %39 = load i16, ptr %38, align 2
  %40 = zext i16 %39 to i32
  %41 = and i32 %40, 8192
  %42 = icmp ne i32 %41, 0
  br i1 %42, label %43, label %46

43:                                               ; preds = %31
  %44 = load ptr, ptr %3, align 8
  %45 = getelementptr inbounds i8, ptr %44, i32 -1
  store ptr %45, ptr %3, align 8
  br label %31

46:                                               ; preds = %31
  %47 = load ptr, ptr %3, align 8
  %48 = getelementptr inbounds i8, ptr %47, i32 1
  store ptr %48, ptr %3, align 8
  store i8 0, ptr %48, align 1
  %49 = load ptr, ptr %2, align 8
  ret ptr %49
}