; Function Attrs: nofree nosync nounwind memory(readwrite, inaccessiblemem: none) uwtable
define hidden noundef ptr @file_strtrim(ptr noundef %0) local_unnamed_addr #11 {
  %2 = tail call ptr @__ctype_b_loc() #18
  %3 = load ptr, ptr %2, align 8
  br label %4

4:                                                ; preds = %4, %1
  %.010 = phi ptr [ %0, %1 ], [ %10, %4 ]
  %5 = load i8, ptr %.010, align 1
  %6 = zext i8 %5 to i64
  %7 = getelementptr inbounds i16, ptr %3, i64 %6
  %8 = load i16, ptr %7, align 2
  %9 = and i16 %8, 8192
  %.not = icmp eq i16 %9, 0
  %10 = getelementptr inbounds i8, ptr %.010, i64 1
  br i1 %.not, label %.preheader13, label %4

.preheader13:                                     ; preds = %4, %.preheader13
  %.0 = phi ptr [ %12, %.preheader13 ], [ %.010, %4 ]
  %11 = load i8, ptr %.0, align 1
  %.not11 = icmp eq i8 %11, 0
  %12 = getelementptr inbounds i8, ptr %.0, i64 1
  br i1 %.not11, label %.preheader, label %.preheader13

.preheader:                                       ; preds = %.preheader13, %.preheader
  %.0.pn = phi ptr [ %.1, %.preheader ], [ %.0, %.preheader13 ]
  %.1 = getelementptr inbounds i8, ptr %.0.pn, i64 -1
  %13 = load i8, ptr %.1, align 1
  %14 = zext i8 %13 to i64
  %15 = getelementptr inbounds i16, ptr %3, i64 %14
  %16 = load i16, ptr %15, align 2
  %17 = and i16 %16, 8192
  %.not12 = icmp eq i16 %17, 0
  br i1 %.not12, label %18, label %.preheader

18:                                               ; preds = %.preheader
  store i8 0, ptr %.0.pn, align 1
  ret ptr %.010
}